; ModuleID = '50/2012.c'
source_filename = "50/2012.c"
target datalayout = "e-m:e-p270:32:32-p271:32:32-p272:64:64-i64:64-f80:128-n8:16:32:64-S128"
target triple = "x86_64-pc-linux-gnu"

@.str = private unnamed_addr constant [3 x i8] c"%d\00", align 1
@.str.1 = private unnamed_addr constant [4 x i8] c"%d\0A\00", align 1

; Function Attrs: noinline nounwind uwtable
define dso_local i32 @main() #0 {
  %1 = alloca i32, align 4
  %2 = alloca i32, align 4
  %3 = alloca i32, align 4
  %4 = alloca i32, align 4
  store i32 0, i32* %1, align 4
  store i32 0, i32* %2, align 4
  store i32 0, i32* %3, align 4
  store i32 12, i32* %4, align 4
  %5 = call i32 (i8*, ...) @__isoc99_scanf(i8* getelementptr inbounds ([3 x i8], [3 x i8]* @.str, i64 0, i64 0), i32* %2)
  store i32 0, i32* %3, align 4
  br label %6

6:                                                ; preds = %46, %0
  %7 = load i32, i32* %3, align 4
  %8 = icmp sle i32 %7, 11
  br i1 %8, label %9, label %49

9:                                                ; preds = %6
  %10 = load i32, i32* %4, align 4
  %11 = srem i32 %10, 7
  %12 = load i32, i32* %2, align 4
  %13 = add nsw i32 %11, %12
  %14 = srem i32 %13, 7
  %15 = icmp eq i32 %14, 5
  br i1 %15, label %16, label %20

16:                                               ; preds = %9
  %17 = load i32, i32* %3, align 4
  %18 = add nsw i32 %17, 1
  %19 = call i32 (i8*, ...) @printf(i8* getelementptr inbounds ([4 x i8], [4 x i8]* @.str.1, i64 0, i64 0), i32 %18)
  br label %20

20:                                               ; preds = %16, %9
  %21 = load i32, i32* %3, align 4
  %22 = icmp eq i32 %21, 3
  br i1 %22, label %32, label %23

23:                                               ; preds = %20
  %24 = load i32, i32* %3, align 4
  %25 = icmp eq i32 %24, 5
  br i1 %25, label %32, label %26

26:                                               ; preds = %23
  %27 = load i32, i32* %3, align 4
  %28 = icmp eq i32 %27, 8
  br i1 %28, label %32, label %29

29:                                               ; preds = %26
  %30 = load i32, i32* %3, align 4
  %31 = icmp eq i32 %30, 10
  br i1 %31, label %32, label %35

32:                                               ; preds = %29, %26, %23, %20
  %33 = load i32, i32* %4, align 4
  %34 = add nsw i32 %33, 30
  store i32 %34, i32* %4, align 4
  br label %45

35:                                               ; preds = %29
  %36 = load i32, i32* %3, align 4
  %37 = icmp eq i32 %36, 1
  br i1 %37, label %38, label %41

38:                                               ; preds = %35
  %39 = load i32, i32* %4, align 4
  %40 = add nsw i32 %39, 28
  store i32 %40, i32* %4, align 4
  br label %44

41:                                               ; preds = %35
  %42 = load i32, i32* %4, align 4
  %43 = add nsw i32 %42, 31
  store i32 %43, i32* %4, align 4
  br label %44

44:                                               ; preds = %41, %38
  br label %45

45:                                               ; preds = %44, %32
  br label %46

46:                                               ; preds = %45
  %47 = load i32, i32* %3, align 4
  %48 = add nsw i32 %47, 1
  store i32 %48, i32* %3, align 4
  br label %6

49:                                               ; preds = %6
  ret i32 0
}

declare dso_local i32 @__isoc99_scanf(i8*, ...) #1

declare dso_local i32 @printf(i8*, ...) #1


!llvm.module.flags = !{!0}
!llvm.ident = !{!1}

!0 = !{i32 1, !"wchar_size", i32 4}
!1 = !{!"clang version 10.0.0-4ubuntu1 "}
